target datalayout = "e-m:e-p270:32:32-p271:32:32-p272:64:64-i64:64-i128:128-f80:128-n8:16:32:64-S128"
target triple = "x86_64-pc-linux-gnu"

%class.QDialog = type { %class.QWidget }
%class.QWidget = type { %class.QObject, %class.QPaintDevice.base, ptr }
%class.QObject = type { ptr, %class.QScopedPointer }
%class.QScopedPointer = type { ptr }
%class.QPaintDevice.base = type <{ ptr, i16 }>
%class.SCTPGraphByteDialog = type { %class.QDialog, ptr, i16, ptr, i32, i32, %class.QList, %class.QList, %class.QList.0 }
%class.QList = type { %struct.QArrayDataPointer }
%struct.QArrayDataPointer = type { ptr, ptr, i64 }
%class.QList.0 = type { %struct.QArrayDataPointer.3 }
%struct.QArrayDataPointer.3 = type { ptr, ptr, i64 }
%struct._sctp_assoc_info = type { i16, %struct._address, %struct._address, i16, i16, i32, i32, i32, i32, ptr, ptr, i16, i16, i16, i16, i32, i32, i32, i32, [8 x i8], i32, i32, i32, i32, i32, i32, i32, i32, i32, i32, i32, i32, i32, i32, i32, i32, i32, i32, i32, i32, i32, i32, i32, i8, i16, i16, i32, i32, i32, i32, i32, i32, i32, i32, i32, i32, ptr, ptr, ptr, ptr, ptr, ptr, ptr, ptr, ptr, ptr, ptr, ptr, i32, ptr, [256 x i32], [256 x i32], [256 x i32], ptr }
%struct._address = type { i32, i32, ptr, ptr }
%class.Ui_SCTPGraphByteDialog = type { ptr, ptr, ptr, ptr, ptr, ptr, ptr, ptr, ptr, ptr }
%class.QFlags.25 = type { i32 }
%class.QBrush = type { %"class.std::unique_ptr" }
%"class.std::unique_ptr" = type { %"struct.std::__uniq_ptr_data" }
%"struct.std::__uniq_ptr_data" = type { %"class.std::__uniq_ptr_impl" }
%"class.std::__uniq_ptr_impl" = type { %"class.std::tuple" }
%"class.std::tuple" = type { %"struct.std::_Tuple_impl" }
%"struct.std::_Tuple_impl" = type { %"struct.std::_Head_base.6" }
%"struct.std::_Head_base.6" = type { ptr }
%class.QPixmap = type { %class.QPaintDevice.base, %class.QExplicitlySharedDataPointer }
%class.QExplicitlySharedDataPointer = type { ptr }
%class.QCustomPlot = type <{ %class.QWidget, ptr, ptr, ptr, ptr, ptr, %class.QRect, double, ptr, i8, [7 x i8], %class.QList.8, %class.QList.12, %class.QList.16, %class.QList.20, %class.QFlags.24, %class.QFlags.24, %class.QFlags.25, i32, i8, [7 x i8], %class.QBrush, %class.QPixmap, %class.QPixmap, i8, [3 x i8], i32, ptr, %class.QFlags.26, i32, i32, [4 x i8], ptr, i8, [7 x i8], %class.QList.27, %class.QPoint, i8, [7 x i8], %class.QPointer, %class.QPointer, %class.QVariant, %class.QVariant, i8, i8, [6 x i8], double, double, i32, %class.QFlags.24, i8, [7 x i8] }>
%class.QRect = type { i32, i32, i32, i32 }
%class.QList.8 = type { %struct.QArrayDataPointer.11 }
%struct.QArrayDataPointer.11 = type { ptr, ptr, i64 }
%class.QList.12 = type { %struct.QArrayDataPointer.15 }
%struct.QArrayDataPointer.15 = type { ptr, ptr, i64 }
%class.QList.16 = type { %struct.QArrayDataPointer.19 }
%struct.QArrayDataPointer.19 = type { ptr, ptr, i64 }
%class.QList.20 = type { %struct.QArrayDataPointer.23 }
%struct.QArrayDataPointer.23 = type { ptr, ptr, i64 }
%class.QFlags.26 = type { i32 }
%class.QList.27 = type { %struct.QArrayDataPointer.30 }
%struct.QArrayDataPointer.30 = type { ptr, ptr, i64 }
%class.QPoint = type { i32, i32 }
%class.QPointer = type { %class.QWeakPointer }
%class.QWeakPointer = type { ptr, ptr }
%class.QVariant = type { %"struct.QVariant::Private" }
%"struct.QVariant::Private" = type { %union.anon, i64 }
%union.anon = type { ptr, [16 x i8] }
%class.QFlags.24 = type { i32 }

; Function Attrs: mustprogress uwtable
define void @_ZN19SCTPGraphByteDialog23on_pushButton_4_clickedEv(ptr noundef nonnull align 8 dereferenceable(144) %0) #0 align 2 {
  %2 = alloca ptr, align 8
  %3 = alloca ptr, align 8
  store ptr %0, ptr %2, align 8
  %4 = load ptr, ptr %2, align 8
  %5 = getelementptr inbounds %class.SCTPGraphByteDialog, ptr %4, i32 0, i32 2
  %6 = load i16, ptr %5, align 8
  %7 = call noundef ptr @_ZN22SCTPAssocAnalyseDialog9findAssocEP7QWidgett(ptr noundef %4, i16 noundef zeroext %6)
  store ptr %7, ptr %3, align 8
  %8 = load ptr, ptr %3, align 8
  %9 = icmp ne ptr %8, null
  br i1 %9, label %11, label %10

10:                                               ; preds = %1
  br label %68

11:                                               ; preds = %1
  %12 = getelementptr inbounds %class.SCTPGraphByteDialog, ptr %4, i32 0, i32 1
  %13 = load ptr, ptr %12, align 8
  %14 = getelementptr inbounds %class.Ui_SCTPGraphByteDialog, ptr %13, i32 0, i32 3
  %15 = load ptr, ptr %14, align 8
  %16 = getelementptr inbounds %class.QCustomPlot, ptr %15, i32 0, i32 1
  %17 = load ptr, ptr %16, align 8
  %18 = load ptr, ptr %3, align 8
  %19 = getelementptr inbounds %struct._sctp_assoc_info, ptr %18, i32 0, i32 46
  %20 = load i32, ptr %19, align 4
  %21 = uitofp i32 %20 to double
  %22 = load ptr, ptr %3, align 8
  %23 = getelementptr inbounds %struct._sctp_assoc_info, ptr %22, i32 0, i32 47
  %24 = load i32, ptr %23, align 8
  %25 = uitofp i32 %24 to double
  %26 = fdiv double %25, 1.000000e+06
  %27 = fadd double %21, %26
  %28 = load ptr, ptr %3, align 8
  %29 = getelementptr inbounds %struct._sctp_assoc_info, ptr %28, i32 0, i32 48
  %30 = load i32, ptr %29, align 4
  %31 = uitofp i32 %30 to double
  %32 = load ptr, ptr %3, align 8
  %33 = getelementptr inbounds %struct._sctp_assoc_info, ptr %32, i32 0, i32 49
  %34 = load i32, ptr %33, align 8
  %35 = uitofp i32 %34 to double
  %36 = fdiv double %35, 1.000000e+06
  %37 = fadd double %31, %36
  call void @_ZN7QCPAxis8setRangeEdd(ptr noundef nonnull align 8 dereferenceable(472) %17, double noundef %27, double noundef %37)
  %38 = getelementptr inbounds %class.SCTPGraphByteDialog, ptr %4, i32 0, i32 5
  %39 = load i32, ptr %38, align 4
  %40 = icmp eq i32 %39, 1
  br i1 %40, label %41, label %52

41:                                               ; preds = %11
  %42 = getelementptr inbounds %class.SCTPGraphByteDialog, ptr %4, i32 0, i32 1
  %43 = load ptr, ptr %42, align 8
  %44 = getelementptr inbounds %class.Ui_SCTPGraphByteDialog, ptr %43, i32 0, i32 3
  %45 = load ptr, ptr %44, align 8
  %46 = getelementptr inbounds %class.QCustomPlot, ptr %45, i32 0, i32 2
  %47 = load ptr, ptr %46, align 8
  %48 = load ptr, ptr %3, align 8
  %49 = getelementptr inbounds %struct._sctp_assoc_info, ptr %48, i32 0, i32 32
  %50 = load i32, ptr %49, align 8
  %51 = uitofp i32 %50 to double
  call void @_ZN7QCPAxis8setRangeEdd(ptr noundef nonnull align 8 dereferenceable(472) %47, double noundef 0.000000e+00, double noundef %51)
  br label %63

52:                                               ; preds = %11
  %53 = getelementptr inbounds %class.SCTPGraphByteDialog, ptr %4, i32 0, i32 1
  %54 = load ptr, ptr %53, align 8
  %55 = getelementptr inbounds %class.Ui_SCTPGraphByteDialog, ptr %54, i32 0, i32 3
  %56 = load ptr, ptr %55, align 8
  %57 = getelementptr inbounds %class.QCustomPlot, ptr %56, i32 0, i32 2
  %58 = load ptr, ptr %57, align 8
  %59 = load ptr, ptr %3, align 8
  %60 = getelementptr inbounds %struct._sctp_assoc_info, ptr %59, i32 0, i32 34
  %61 = load i32, ptr %60, align 8
  %62 = uitofp i32 %61 to double
  call void @_ZN7QCPAxis8setRangeEdd(ptr noundef nonnull align 8 dereferenceable(472) %58, double noundef 0.000000e+00, double noundef %62)
  br label %63

63:                                               ; preds = %52, %41
  %64 = getelementptr inbounds %class.SCTPGraphByteDialog, ptr %4, i32 0, i32 1
  %65 = load ptr, ptr %64, align 8
  %66 = getelementptr inbounds %class.Ui_SCTPGraphByteDialog, ptr %65, i32 0, i32 3
  %67 = load ptr, ptr %66, align 8
  call void @_ZN11QCustomPlot6replotENS_15RefreshPriorityE(ptr noundef nonnull align 8 dereferenceable(513) %67, i32 noundef 2)
  br label %68

68:                                               ; preds = %63, %10
  ret void
}